; Function Attrs: mustprogress nounwind uwtable
define dso_local void @_ZN21btMultiBodyConstraintD2Ev(ptr noundef nonnull align 8 captures(none) dereferenceable(96) initializes((0, 8)) %0) unnamed_addr #4 align 2 personality ptr @__gxx_personality_v0 {
  store ptr getelementptr inbounds nuw inrange(-16, 104) (i8, ptr @_ZTV21btMultiBodyConstraint, i64 16), ptr %0, align 8, !tbaa !4
  %2 = getelementptr inbounds nuw i8, ptr %0, i64 80
  %3 = load ptr, ptr %2, align 8, !tbaa !29
  %.not.i.i.i = icmp eq ptr %3, null
  br i1 %.not.i.i.i, label %_ZN20btAlignedObjectArrayIfED2Ev.exit, label %4

4:                                                ; preds = %1
  %5 = getelementptr inbounds nuw i8, ptr %0, i64 88
  %6 = load i8, ptr %5, align 8, !tbaa !28, !range !53, !noundef !54
  %7 = trunc nuw i8 %6 to i1
  br i1 %7, label %8, label %_ZN20btAlignedObjectArrayIfED2Ev.exit

8:                                                ; preds = %4
  invoke void @_Z21btAlignedFreeInternalPv(ptr noundef nonnull %3)
          to label %_ZN20btAlignedObjectArrayIfED2Ev.exit unwind label %9

9:                                                ; preds = %8
  %10 = landingpad { ptr, i32 }
          catch ptr null
  %11 = extractvalue { ptr, i32 } %10, 0
  tail call void @__clang_call_terminate(ptr %11) #16
  unreachable

_ZN20btAlignedObjectArrayIfED2Ev.exit:            ; preds = %1, %4, %8
  %12 = getelementptr inbounds nuw i8, ptr %0, i64 68
  %13 = getelementptr inbounds nuw i8, ptr %0, i64 88
  store i8 1, ptr %13, align 8, !tbaa !28
  store ptr null, ptr %2, align 8, !tbaa !29
  store i32 0, ptr %12, align 4, !tbaa !30
  %14 = getelementptr inbounds nuw i8, ptr %0, i64 72
  store i32 0, ptr %14, align 8, !tbaa !31
  ret void
}